target datalayout = "e-m:e-p270:32:32-p271:32:32-p272:64:64-i64:64-i128:128-f80:128-n8:16:32:64-S128"
target triple = "x86_64-pc-linux-gnu"

%struct.map_info = type { i32, i64, i64, i64, i32, ptr }

@.str.6 = private unnamed_addr constant [57 x i8] c"core read failed for %d byte(s) @ 0x%lx (%d more bytes)\0A\00", align 1

; Function Attrs: nounwind uwtable
define internal i32 @core_read_data(ptr noundef %0, i64 noundef %1, ptr noundef %2, i64 noundef %3) #0 {
  %5 = alloca i32, align 4
  %6 = alloca ptr, align 8
  %7 = alloca i64, align 8
  %8 = alloca ptr, align 8
  %9 = alloca i64, align 8
  %10 = alloca i64, align 8
  %11 = alloca i32, align 4
  %12 = alloca ptr, align 8
  %13 = alloca i64, align 8
  %14 = alloca i64, align 8
  %15 = alloca i64, align 8
  %16 = alloca i64, align 8
  %17 = alloca i32, align 4
  store ptr %0, ptr %6, align 8
  store i64 %1, ptr %7, align 8
  store ptr %2, ptr %8, align 8
  store i64 %3, ptr %9, align 8
  %18 = load i64, ptr %9, align 8
  store i64 %18, ptr %10, align 8
  %19 = call i64 @sysconf(i32 noundef 30) #8
  %20 = trunc i64 %19 to i32
  store i32 %20, ptr %11, align 4
  br label %21

21:                                               ; preds = %112, %4
  %22 = load i64, ptr %10, align 8
  %23 = icmp ne i64 %22, 0
  br i1 %23, label %24, label %113

24:                                               ; preds = %21
  %25 = load ptr, ptr %6, align 8
  %26 = load i64, ptr %7, align 8
  %27 = call ptr @core_lookup(ptr noundef %25, i64 noundef %26)
  store ptr %27, ptr %12, align 8
  %28 = load ptr, ptr %12, align 8
  %29 = icmp eq ptr %28, null
  br i1 %29, label %30, label %31

30:                                               ; preds = %24
  br label %113

31:                                               ; preds = %24
  %32 = load ptr, ptr %12, align 8
  %33 = getelementptr inbounds %struct.map_info, ptr %32, i32 0, i32 0
  %34 = load i32, ptr %33, align 8
  store i32 %34, ptr %17, align 4
  %35 = load i64, ptr %7, align 8
  %36 = load ptr, ptr %12, align 8
  %37 = getelementptr inbounds %struct.map_info, ptr %36, i32 0, i32 2
  %38 = load i64, ptr %37, align 8
  %39 = sub i64 %35, %38
  store i64 %39, ptr %13, align 8
  %40 = load i64, ptr %10, align 8
  %41 = load ptr, ptr %12, align 8
  %42 = getelementptr inbounds %struct.map_info, ptr %41, i32 0, i32 3
  %43 = load i64, ptr %42, align 8
  %44 = load i64, ptr %13, align 8
  %45 = sub i64 %43, %44
  %46 = icmp ult i64 %40, %45
  br i1 %46, label %47, label %49

47:                                               ; preds = %31
  %48 = load i64, ptr %10, align 8
  br label %55

49:                                               ; preds = %31
  %50 = load ptr, ptr %12, align 8
  %51 = getelementptr inbounds %struct.map_info, ptr %50, i32 0, i32 3
  %52 = load i64, ptr %51, align 8
  %53 = load i64, ptr %13, align 8
  %54 = sub i64 %52, %53
  br label %55

55:                                               ; preds = %49, %47
  %56 = phi i64 [ %48, %47 ], [ %54, %49 ]
  store i64 %56, ptr %14, align 8
  %57 = load ptr, ptr %12, align 8
  %58 = getelementptr inbounds %struct.map_info, ptr %57, i32 0, i32 1
  %59 = load i64, ptr %58, align 8
  %60 = load i64, ptr %13, align 8
  %61 = add i64 %59, %60
  store i64 %61, ptr %16, align 8
  %62 = load i32, ptr %17, align 4
  %63 = load ptr, ptr %8, align 8
  %64 = load i64, ptr %14, align 8
  %65 = load i64, ptr %16, align 8
  %66 = call i64 @pread64(i32 noundef %62, ptr noundef %63, i64 noundef %64, i64 noundef %65)
  store i64 %66, ptr %14, align 8
  %67 = icmp sle i64 %66, 0
  br i1 %67, label %68, label %69

68:                                               ; preds = %55
  br label %113

69:                                               ; preds = %55
  %70 = load i64, ptr %14, align 8
  %71 = load i64, ptr %10, align 8
  %72 = sub nsw i64 %71, %70
  store i64 %72, ptr %10, align 8
  %73 = load i64, ptr %14, align 8
  %74 = load i64, ptr %7, align 8
  %75 = add i64 %74, %73
  store i64 %75, ptr %7, align 8
  %76 = load ptr, ptr %8, align 8
  %77 = load i64, ptr %14, align 8
  %78 = getelementptr inbounds i8, ptr %76, i64 %77
  store ptr %78, ptr %8, align 8
  %79 = load ptr, ptr %12, align 8
  %80 = getelementptr inbounds %struct.map_info, ptr %79, i32 0, i32 3
  %81 = load i64, ptr %80, align 8
  %82 = load i32, ptr %11, align 4
  %83 = sext i32 %82 to i64
  %84 = urem i64 %81, %83
  store i64 %84, ptr %15, align 8
  %85 = load i64, ptr %15, align 8
  %86 = icmp sgt i64 %85, 0
  br i1 %86, label %87, label %112

87:                                               ; preds = %69
  %88 = load i32, ptr %11, align 4
  %89 = sext i32 %88 to i64
  %90 = load i64, ptr %15, align 8
  %91 = sub nsw i64 %89, %90
  store i64 %91, ptr %15, align 8
  %92 = load i64, ptr %10, align 8
  %93 = load i64, ptr %15, align 8
  %94 = icmp slt i64 %92, %93
  br i1 %94, label %95, label %97

95:                                               ; preds = %87
  %96 = load i64, ptr %10, align 8
  br label %99

97:                                               ; preds = %87
  %98 = load i64, ptr %15, align 8
  br label %99

99:                                               ; preds = %97, %95
  %100 = phi i64 [ %96, %95 ], [ %98, %97 ]
  store i64 %100, ptr %14, align 8
  %101 = load i64, ptr %14, align 8
  %102 = load i64, ptr %10, align 8
  %103 = sub nsw i64 %102, %101
  store i64 %103, ptr %10, align 8
  %104 = load i64, ptr %14, align 8
  %105 = load i64, ptr %7, align 8
  %106 = add i64 %105, %104
  store i64 %106, ptr %7, align 8
  %107 = load ptr, ptr %8, align 8
  %108 = load i64, ptr %14, align 8
  call void @llvm.memset.p0.i64(ptr align 1 %107, i8 0, i64 %108, i1 false)
  %109 = load i64, ptr %14, align 8
  %110 = load ptr, ptr %8, align 8
  %111 = getelementptr inbounds i8, ptr %110, i64 %109
  store ptr %111, ptr %8, align 8
  br label %112

112:                                              ; preds = %99, %69
  br label %21, !llvm.loop !13

113:                                              ; preds = %68, %30, %21
  %114 = load i64, ptr %10, align 8
  %115 = icmp ne i64 %114, 0
  br i1 %115, label %116, label %120

116:                                              ; preds = %113
  %117 = load i64, ptr %9, align 8
  %118 = load i64, ptr %7, align 8
  %119 = load i64, ptr %10, align 8
  call void (ptr, ...) @print_debug(ptr noundef @.str.6, i64 noundef %117, i64 noundef %118, i64 noundef %119)
  store i32 0, ptr %5, align 4
  br label %121

120:                                              ; preds = %113
  store i32 1, ptr %5, align 4
  br label %121

121:                                              ; preds = %120, %116
  %122 = load i32, ptr %5, align 4
  ret i32 %122
}