; Function Attrs: nounwind uwtable
define internal range(i32 0, 2) i32 @core_read_data(ptr noundef %0, i64 noundef %1, ptr noundef %2, i64 noundef %3) #0 {
  %5 = tail call i64 @sysconf(i32 noundef 30) #15
  %.not58 = icmp eq i64 %3, 0
  br i1 %.not58, label %.critedge, label %.lr.ph

.lr.ph:                                           ; preds = %4
  %sext = shl i64 %5, 32
  %6 = ashr exact i64 %sext, 32
  br label %7

7:                                                ; preds = %.lr.ph, %36
  %.04761 = phi i64 [ %1, %.lr.ph ], [ %.1, %36 ]
  %.04860 = phi ptr [ %2, %.lr.ph ], [ %.149, %36 ]
  %.05059 = phi i64 [ %3, %.lr.ph ], [ %.151, %36 ]
  %8 = tail call ptr @core_lookup(ptr noundef %0, i64 noundef %.04761) #15
  %9 = icmp eq ptr %8, null
  br i1 %9, label %37, label %10

10:                                               ; preds = %7
  %11 = load i32, ptr %8, align 8
  %12 = getelementptr inbounds i8, ptr %8, i64 16
  %13 = load i64, ptr %12, align 8
  %14 = sub i64 %.04761, %13
  %15 = getelementptr inbounds i8, ptr %8, i64 24
  %16 = load i64, ptr %15, align 8
  %17 = sub i64 %16, %14
  %.050. = tail call i64 @llvm.umin.i64(i64 %.05059, i64 %17)
  %18 = getelementptr inbounds i8, ptr %8, i64 8
  %19 = load i64, ptr %18, align 8
  %20 = add i64 %19, %14
  %21 = tail call i64 @pread64(i32 noundef %11, ptr noundef %.04860, i64 noundef %.050., i64 noundef %20) #15
  %22 = icmp slt i64 %21, 1
  br i1 %22, label %37, label %23

23:                                               ; preds = %10
  %24 = sub nsw i64 %.05059, %21
  %25 = add i64 %21, %.04761
  %26 = getelementptr inbounds i8, ptr %.04860, i64 %21
  %27 = load i64, ptr %15, align 8
  %28 = urem i64 %27, %6
  %29 = icmp sgt i64 %28, 0
  br i1 %29, label %30, label %36

30:                                               ; preds = %23
  %31 = sub nsw i64 %6, %28
  %32 = tail call i64 @llvm.smin.i64(i64 %24, i64 %31)
  %33 = sub nsw i64 %24, %32
  %34 = add i64 %32, %25
  tail call void @llvm.memset.p0.i64(ptr nonnull align 1 %26, i8 0, i64 %32, i1 false)
  %35 = getelementptr inbounds i8, ptr %26, i64 %32
  br label %36

36:                                               ; preds = %30, %23
  %.151 = phi i64 [ %33, %30 ], [ %24, %23 ]
  %.149 = phi ptr [ %35, %30 ], [ %26, %23 ]
  %.1 = phi i64 [ %34, %30 ], [ %25, %23 ]
  %.not = icmp eq i64 %.151, 0
  br i1 %.not, label %.critedge, label %7, !llvm.loop !15

37:                                               ; preds = %7, %10
  tail call void (ptr, ...) @print_debug(ptr noundef nonnull @.str.6, i64 noundef %3, i64 noundef %.04761, i64 noundef %.05059) #15
  br label %.critedge

.critedge:                                        ; preds = %36, %4, %37
  %.0 = phi i32 [ 0, %37 ], [ 1, %4 ], [ 1, %36 ]
  ret i32 %.0
}